******************************************************************************
                  TMS470 Linker PC v4.9.0                      
******************************************************************************
>> Linked Mon May 14 12:12:56 2012

OUTPUT FILE NAME:   <enet_uip.out>
ENTRY POINT SYMBOL: "_c_int00"  address: 00209261


MEMORY CONFIGURATION

         name            origin    length      used     unused   attr    fill
----------------------  --------  ---------  --------  --------  ----  --------
  CSM_ECSL_Z1           00200000   00000024  00000000  00000024  RWIX
  CSM_RSVD_Z1           00200024   0000000c  00000000  0000000c  RWIX
  RESETISR              00200030   00000008  00000006  00000002  R  X
  INTVECS               00201000   000001b0  000001b0  00000000  R  X
  FLASHLOAD             00201200   00002e00  00000000  00002e00  R  X
  FLASH1                00204000   0001c000  00005d2a  000162d6  R  X
  FLASH2                00260000   0001ff00  00000000  0001ff00  R  X
  CSM_RSVD_Z2           0027ff00   000000dc  00000000  000000dc  RWIX
  CSM_ECSL_Z2           0027ffdc   00000024  00000000  00000024  RWIX
  C0                    20000000   00003800  00003800  00000000  RW X
  C1                    20003800   00000800  000001b0  00000650  RW X
  BOOT_RSVD             20004000   00000900  00000000  00000900  R  X
  C2                    20004900   00001700  0000096a  00000d96  RW X
  C3                    20006000   00002000  00000000  00002000  RW X
  CTOMRAM               2007f000   00000800  00000000  00000800  R  X
  MTOCRAM               2007f800   00000800  00000000  00000800  RW X


SEGMENT ALLOCATION MAP

run origin  load origin   length   init length attrs members
----------  ----------- ---------- ----------- ----- -------
00200030    00200030    00000006   00000006    r-x
  00200030    00200030    00000006   00000006    r-x .resetisr
00201000    00201000    000001b0   000001b0    r--
  00201000    00201000    000001b0   000001b0    r-- .intvecs
00204000    00204000    00005d30   00005d30    r-x
  00204000    00204000    0000538a   0000538a    r-x .text
  0020938c    0020938c    00000950   00000950    r-- .const
  00209ce0    00209ce0    00000050   00000050    r-- .cinit
20000000    20000000    000039b0   00000000    rw-
  20000000    20000000    00003800   00000000    rw- .stack
  20003800    20003800    000001b0   00000000    rw- .vtable
20004900    20004900    00000030   00000030    rw-
  20004900    20004900    00000030   00000030    rw- .data
20004c00    20004c00    0000093a   00000000    rw-
  20004c00    20004c00    0000093a   00000000    rw- .bss


SECTION ALLOCATION MAP

 output                                  attributes/
section   page    origin      length       input sections
--------  ----  ----------  ----------   ----------------
.resetisr 
*          0    00200030    00000006     
                  00200030    00000006     startup_ccs.obj (.resetisr)

.intvecs   0    00201000    000001b0     
                  00201000    000001b0     startup_ccs.obj (.intvecs)

.text      0    00204000    0000538a     
                  00204000    00001848     uip.obj (.text)
                  00205848    00000a94     enet_uip.obj (.text)
                  002062dc    00000970     driverlib.lib : sysctl.obj (.text)
                  00206c4c    000007dc     ustdlib.obj (.text)
                  00207428    00000534     dhcpc.obj (.text)
                  0020795c    00000500     uip_arp.obj (.text)
                  00207e5c    00000450     driverlib.lib : gpio.obj (.text)
                  002082ac    00000322                   : ethernet.obj (.text)
                  002085ce    00000002     rtsv7M3_T_le_eabi.lib : tdeh_init.obj (.text)
                  002085d0    000002e8     driverlib.lib : udma.obj (.text)
                  002088b8    000002b4                   : interrupt.obj (.text)
                  00208b6c    000002ac     httpd.obj (.text)
                  00208e18    000000ac     driverlib.lib : watchdog.obj (.text)
                  00208ec4    0000009c     rtsv7M3_T_le_eabi.lib : memcpy_t2.obj (.text)
                  00208f60    00000094                           : auto_init.obj (.text)
                  00208ff4    00000078     driverlib.lib : systick.obj (.text)
                  0020906c    00000078     rtsv7M3_T_le_eabi.lib : memset_t2.obj (.text)
                  002090e4    0000005e                           : copy_decompress_rle.obj (.text)
                  00209142    00000058     uip_timer.obj (.text)
                  0020919a    00000002     --HOLE-- [fill = 0]
                  0020919c    00000048     rtsv7M3_T_le_eabi.lib : cpy_tbl.obj (.text)
                  002091e4    00000044                           : exit.obj (.text)
                  00209228    00000036     driverlib.lib : cpu.obj (.text)
                  0020925e    00000002     --HOLE-- [fill = 0]
                  00209260    00000034     rtsv7M3_T_le_eabi.lib : boot.obj (.text)
                  00209294    00000030                           : strncpy.obj (.text)
                  002092c4    00000026                           : strncmp.obj (.text)
                  002092ea    00000022                           : memcmp.obj (.text)
                  0020930c    00000020                           : args_main.obj (.text)
                  0020932c    00000018                           : _lock.obj (.text)
                  00209344    00000014                           : strlen.obj (.text)
                  00209358    00000012                           : copy_zero_init.obj (.text:decompress:ZI)
                  0020936a    0000000e                           : copy_decompress_none.obj (.text:decompress:none)
                  00209378    00000006     driverlib.lib : sysctl.obj (.text:SysCtlDelay)
                  0020937e    00000006     rtsv7M3_T_le_eabi.lib : copy_decompress_rle.obj (.text:decompress:rle24)
                  00209384    00000006     startup_ccs.obj (.text)

.const     0    0020938c    00000950     
                  0020938c    00000365     httpd.obj (.const:default_page_buf1of3)
                  002096f1    00000003     --HOLE-- [fill = 0]
                  002096f4    000002f1     httpd.obj (.const:default_page_buf2of3)
                  002099e5    00000003     --HOLE-- [fill = 0]
                  002099e8    00000115     httpd.obj (.const:page_not_found)
                  00209afd    00000003     --HOLE-- [fill = 0]
                  00209b00    00000067     httpd.obj (.const:default_page_buf3of3)
                  00209b67    00000001     --HOLE-- [fill = 0]
                  00209b68    00000054     driverlib.lib : sysctl.obj (.const)
                  00209bbc    00000048                   : gpio.obj (.const:g_pulGPIOBaseAddrs)
                  00209c04    00000048                   : interrupt.obj (.const:g_pulRegs)
                  00209c4c    00000024     enet_uip.obj (.const)
                  00209c70    00000020     driverlib.lib : interrupt.obj (.const)
                  00209c90    0000001c     ustdlib.obj (.const)
                  00209cac    00000012     ustdlib.obj (.const:.string)
                  00209cbe    00000002     --HOLE-- [fill = 0]
                  00209cc0    0000000a     uip_arp.obj (.const)
                  00209cca    00000002     --HOLE-- [fill = 0]
                  00209ccc    00000008     dhcpc.obj (.const)
                  00209cd4    00000008     uip.obj (.const)

.cinit     0    00209ce0    00000050     
                  00209ce0    00000018     (.cinit..data.load) [load image, compression = rle]
                  00209cf8    0000000c     (__TI_handler_table)
                  00209d04    00000004     --HOLE-- [fill = 0]
                  00209d08    00000008     (.cinit..bss.load) [load image, compression = zero_init]
                  00209d10    00000008     (.cinit..vtable.load) [load image, compression = zero_init]
                  00209d18    00000018     (__TI_cinit_table)

.stack     0    20000000    00003800     UNINITIALIZED
                  20000000    00003800     --HOLE--

ramfuncs   0    20000000    00000000     UNINITIALIZED

.vtable    0    20003800    000001b0     UNINITIALIZED
                  20003800    000001b0     driverlib.lib : interrupt.obj (.vtable)

.data      0    20004900    00000030     
                  20004900    00000008     rtsv7M3_T_le_eabi.lib : _lock.obj (.data)
                  20004908    00000008                           : exit.obj (.data)
                  20004910    00000006     enet_uip.obj (.data)
                  20004916    00000002     --HOLE--
                  20004918    00000006     httpd.obj (.data)
                  2000491e    00000002     --HOLE--
                  20004920    00000006     uip.obj (.data)
                  20004926    00000002     --HOLE--
                  20004928    00000004     rtsv7M3_T_le_eabi.lib : stkdepth_vars.obj (.data)
                  2000492c    00000004     ustdlib.obj (.data)

.bss       0    20004c00    0000093a     UNINITIALIZED
                  20004c00    00000644     enet_uip.obj (.bss:ucUIPBuffer)
                  20005244    00000100     uip.obj (.bss:uip_udp_conns)
                  20005344    00000060     uip_arp.obj (.bss:arp_table)
                  200053a4    00000040     uip.obj (.bss:uip_conns)
                  200053e4    00000018     httpd.obj (.bss)
                  200053fc    00000004     --HOLE--
                  20005400    00000080     enet_uip.obj (.bss:g_sDMAControlTable)
                  20005480    0000003c     uip.obj (.bss)
                  200054bc    00000034     dhcpc.obj (.bss:s)
                  200054f0    00000034     uip.obj (.bss:uip_stat)
                  20005524    0000000e     enet_uip.obj (.bss)
                  20005532    00000008     uip_arp.obj (.bss)

GETBUFFER 
*          0    2007f000    00000000     DSECT

GETWRITEIDX 
*          0    2007f000    00000000     DSECT

PUTREADIDX 
*          0    2007f000    00000000     DSECT


LINKER GENERATED COPY TABLES

__TI_cinit_table @ 00209d18 records: 3, size/record: 8, table size: 24
	.data: load addr=00209ce0, load size=00000018 bytes, run addr=20004900, run size=00000030 bytes, compression=rle
	.bss: load addr=00209d08, load size=00000008 bytes, run addr=20004c00, run size=0000093a bytes, compression=zero_init
	.vtable: load addr=00209d10, load size=00000008 bytes, run addr=20003800, run size=000001b0 bytes, compression=zero_init


LINKER GENERATED HANDLER TABLE

__TI_handler_table @ 00209cf8 records: 3, size/record: 4, table size: 12
	index: 0, handler: __TI_zero_init
	index: 1, handler: __TI_decompress_rle24
	index: 2, handler: __TI_decompress_none


GLOBAL SYMBOLS: SORTED ALPHABETICALLY BY Name 

address    name
--------   ----
002091e5   C$$EXIT
00209255   CPUbasepriGet
0020924f   CPUbasepriSet
00209229   CPUcpsid
0020923f   CPUcpsie
00209235   CPUprimask
0020924b   CPUwfi
002082e5   EthernetConfigGet
002082bb   EthernetConfigSet
0020837b   EthernetDisable
00208359   EthernetEnable
002082ad   EthernetInitExpClk
00208557   EthernetIntClear
00208541   EthernetIntDisable
00208539   EthernetIntEnable
002058a1   EthernetIntHandler
00208519   EthernetIntRegister
0020854b   EthernetIntStatus
00208529   EthernetIntUnregister
0020832f   EthernetMACAddrGet
00208301   EthernetMACAddrSet
00208597   EthernetPHYPowerOff
002085b3   EthernetPHYPowerOn
00208579   EthernetPHYRead
0020855b   EthernetPHYWrite
0020839d   EthernetPacketAvail
00208461   EthernetPacketGet
002059ad   EthernetPacketGetDMA
00208451   EthernetPacketGetNonBlocking
0020850b   EthernetPacketPut
002084fb   EthernetPacketPutNonBlocking
00205be1   EthernetPinsSetup
00205cff   EthernetProcessCMD
002083ad   EthernetSpaceAvail
00207f2f   GPIODirModeGet
00207eff   GPIODirModeSet
00207f9f   GPIOIntTypeGet
00207f59   GPIOIntTypeSet
00208033   GPIOPadConfigGet
00207fd9   GPIOPadConfigSet
002081c1   GPIOPinConfigure
0020822b   GPIOPinConfigureCoreSelect
00208097   GPIOPinIntClear
0020807b   GPIOPinIntDisable
0020806f   GPIOPinIntEnable
00208089   GPIOPinIntStatus
00208255   GPIOPinLock
0020824b   GPIOPinLockStatus
002080c9   GPIOPinRead
002080d5   GPIOPinTypeCAN
002081ad   GPIOPinTypeEPI
002080e9   GPIOPinTypeGPIOInput
002080fd   GPIOPinTypeGPIOOutput
00208119   GPIOPinTypeGPIOOutputOD
0020812d   GPIOPinTypeI2C
00208145   GPIOPinTypeSSI
0020815d   GPIOPinTypeTimer
00208171   GPIOPinTypeUART
00208199   GPIOPinTypeUSBAnalog
00208185   GPIOPinTypeUSBDigital
0020827b   GPIOPinUnlock
002080cf   GPIOPinWrite
0020809d   GPIOPortIntRegister
002080b5   GPIOPortIntUnregister
00208a0b   IntDisableMWare
00208997   IntEnableMWare
002088cf   IntFlashVTableMWare
002088c5   IntMasterDisableMWare
002088bb   IntMasterEnableMWare
00208af5   IntPendClearMWare
00208a81   IntPendSetMWare
0020897f   IntPriorityGetMWare
00208931   IntPriorityGroupingGetMWare
0020891f   IntPriorityGroupingSetMWare
00209255   IntPriorityMaskGetMWare
0020924f   IntPriorityMaskSetMWare
00208953   IntPrioritySetMWare
002088dd   IntRAMVTableMWare
002088eb   IntRegisterMWare
00208915   IntUnregisterMWare
00000000   RamfuncsLoadSize
20000000   RamfuncsLoadStart
20000000   RamfuncsRunStart
00200031   ResetISR
0020586b   ShowIPAddress
002069b3   SysCtlC28Disable
0020699b   SysCtlC28Enable
002068d1   SysCtlClockConfigGet
0020689d   SysCtlClockConfigSet
00206639   SysCtlClockDividersSet
00206921   SysCtlClockGet
00206771   SysCtlClockPllConfig
00206579   SysCtlDeepSleep
00209379   SysCtlDelay
00206b0b   SysCtlEnableAERRNMI
00206b25   SysCtlEnableVREGWarnNMI
002062fb   SysCtlFlashSizeGet
002069e7   SysCtlGPIOAHBDisable
002069cb   SysCtlGPIOAHBEnable
00206b3d   SysCtlGetNmiConfig
00206b51   SysCtlGetNmiFlagStatus
00206b43   SysCtlGetNmiInterruptStatus
00206ba7   SysCtlHoldSubSystemInReset
00206b71   SysCtlNmiFlgClr
00206b89   SysCtlNmiFlgClrAll
00206b59   SysCtlNmiIsSet
0020653d   SysCtlPeripheralClockGating
00206511   SysCtlPeripheralDeepSleepDisable
002064e7   SysCtlPeripheralDeepSleepEnable
00206457   SysCtlPeripheralDisable
00206431   SysCtlPeripheralEnable
0020647d   SysCtlPeripheralIsEnabled
00206307   SysCtlPeripheralPresent
00206369   SysCtlPeripheralReset
002064c1   SysCtlPeripheralSleepDisable
0020649b   SysCtlPeripheralSleepEnable
0020673f   SysCtlPowerOffPLL
00206bcd   SysCtlReleaseSubSystemFromReset
00206565   SysCtlReset
002065a5   SysCtlResetCauseClear
00206599   SysCtlResetCauseGet
002062dd   SysCtlSRAMSizeGet
0020924b   SysCtlSleep
00206bf5   SysCtlSubSystemReset
00206aed   SysCtlUSBPLLConfigGet
00206a55   SysCtlUSBPLLConfigSet
00206a39   SysCtlUSBPLLDisable
00206a05   SysCtlUSBPLLEnable
002065c1   SysCtlXPllClockDividerSet
00209001   SysTickDisable
00208ff5   SysTickEnable
0020903f   SysTickIntDisable
00209033   SysTickIntEnable
00205849   SysTickIntHandler
0020900d   SysTickIntRegister
00209023   SysTickIntUnregister
00209055   SysTickPeriodGet
0020904b   SysTickPeriodSet
0020905f   SysTickValueGet
00208e21   WatchdogEnable
00208e9f   WatchdogIntClear
00208e8b   WatchdogIntEnable
00208e6b   WatchdogIntRegister
00208e95   WatchdogIntStatus
00208e7b   WatchdogIntUnregister
00208e3f   WatchdogLock
00208e4f   WatchdogLockState
00208e63   WatchdogReloadGet
00208e5f   WatchdogReloadSet
00208e35   WatchdogResetDisable
00208e2b   WatchdogResetEnable
00208e19   WatchdogRunning
00208eb3   WatchdogStallDisable
00208ea5   WatchdogStallEnable
00208e47   WatchdogUnlock
00208e67   WatchdogValueGet
20003800   __STACK_END
00003800   __STACK_SIZE
00209d18   __TI_CINIT_Base
00209d30   __TI_CINIT_Limit
00209cf8   __TI_Handler_Table_Base
00209d04   __TI_Handler_Table_Limit
00000001   __TI_args_main
00208f61   __TI_auto_init
0020936b   __TI_decompress_none
0020937f   __TI_decompress_rle24
00209ce0   __TI_static_base__
00209359   __TI_zero_init
0020906d   __aeabi_memclr
0020906d   __aeabi_memclr4
0020906d   __aeabi_memclr8
00208ec5   __aeabi_memcpy
00208ec5   __aeabi_memcpy4
00208ec5   __aeabi_memcpy8
0020906f   __aeabi_memset
0020906f   __aeabi_memset4
0020906f   __aeabi_memset8
ffffffff   __binit__
ffffffff   __c_args__
20000000   __stack
002085cf   __tdeh_init
0020930d   _args_main
00209261   _c_int00
20004908   _cleanup_ptr
2000490c   _dtors_ptr
20004900   _lock
00209339   _nop
00209333   _register_lock
0020932d   _register_unlock
20004904   _unlock
002091e9   abort
ffffffff   binit
0020589b   clock_time
0020919d   copy_in
002078fb   dhcpc_appcall
00205957   dhcpc_configured
002078ad   dhcpc_init
00207903   dhcpc_request
2000491c   empty_char
002091f1   exit
20003800   g_pfnRAMVectors
00201000   g_pfnVectors
20005400   g_sDMAControlTable
20004910   g_ulTickCounter
200053e4   hs
002057d3   htons
00208c65   httpd_appcall
00208c3d   httpd_clear_command
00208c0d   httpd_get_command
00208b6d   httpd_init
00208c45   httpd_insert_response
00208b79   httpd_parse_command_word
200053e8   index
00209c55   led6_off
00209c4c   led6_on
00209c67   led7_off
00209c5e   led7_on
00205dfd   main
20004928   main_func_sp
002092eb   memcmp
00208ec5   memcpy
00209075   memset
200053f4   response_to_client
00209345   strlen
002092c5   strncmp
00209295   strncpy
0020917d   timer_expired
00209159   timer_reset
0020916f   timer_restart
00209143   timer_set
00208827   uDMAChannel0_7SelectAltMapping
0020881b   uDMAChannel0_7SelectDefault
0020885d   uDMAChannel16_23SelectAltMapping
0020884f   uDMAChannel16_23SelectDefault
00208877   uDMAChannel24_31SelectAltMapping
00208869   uDMAChannel24_31SelectDefault
00208843   uDMAChannel8_15SelectAltMapping
00208835   uDMAChannel8_15SelectDefault
00208681   uDMAChannelAttributeDisable
00208645   uDMAChannelAttributeEnable
002086bd   uDMAChannelAttributeGet
0020870d   uDMAChannelControlSet
00208601   uDMAChannelDisable
002085f3   uDMAChannelEnable
0020860f   uDMAChannelIsEnabled
002087f7   uDMAChannelModeGet
00208637   uDMAChannelRequest
0020879f   uDMAChannelScatterGatherSet
002087db   uDMAChannelSizeGet
00208727   uDMAChannelTransferSet
0020862f   uDMAControlAlternateBaseGet
00208627   uDMAControlBaseGet
0020861f   uDMAControlBaseSet
002085d9   uDMADisable
002085d1   uDMAEnable
002085e9   uDMAErrorStatusClear
002085e1   uDMAErrorStatusGet
00208883   uDMAIntRegister
00208893   uDMAIntUnregister
20004c00   ucUIPBuffer
200054b4   uip_acc32
00204015   uip_add32
2000548c   uip_appdata
00207b2d   uip_arp_arpin
0020795d   uip_arp_init
00207c51   uip_arp_out
00207995   uip_arp_timer
20005524   uip_buf
0020414f   uip_chksum
2000549c   uip_conn
002042a9   uip_connect
200053a4   uip_conns
20005484   uip_draddr
20004920   uip_ethaddr
20005498   uip_flags
20005480   uip_hostaddr
00204215   uip_init
00204169   uip_ipchksum
20005494   uip_len
002044e5   uip_listen
200054a0   uip_listenports
20005488   uip_netmask
00204595   uip_process
20005490   uip_sappdata
002057f5   uip_send
00204001   uip_setipid
20005496   uip_slen
200054f0   uip_stat
00204201   uip_tcpchksum
200054a8   uip_udp_conn
20005244   uip_udp_conns
002043b9   uip_udp_new
00204495   uip_unlisten
002070a9   ulocaltime
00207405   urand
00207075   usnprintf
00207043   usprintf
002073f5   usrand
002073e1   ustrcasecmp
00207341   ustrnicmp
00207307   ustrstr
002071cf   ustrtoul
00206c4d   uvsnprintf


GLOBAL SYMBOLS: SORTED BY Symbol Address 

address    name
--------   ----
00000000   RamfuncsLoadSize
00000001   __TI_args_main
00003800   __STACK_SIZE
00200031   ResetISR
00201000   g_pfnVectors
00204001   uip_setipid
00204015   uip_add32
0020414f   uip_chksum
00204169   uip_ipchksum
00204201   uip_tcpchksum
00204215   uip_init
002042a9   uip_connect
002043b9   uip_udp_new
00204495   uip_unlisten
002044e5   uip_listen
00204595   uip_process
002057d3   htons
002057f5   uip_send
00205849   SysTickIntHandler
0020586b   ShowIPAddress
0020589b   clock_time
002058a1   EthernetIntHandler
00205957   dhcpc_configured
002059ad   EthernetPacketGetDMA
00205be1   EthernetPinsSetup
00205cff   EthernetProcessCMD
00205dfd   main
002062dd   SysCtlSRAMSizeGet
002062fb   SysCtlFlashSizeGet
00206307   SysCtlPeripheralPresent
00206369   SysCtlPeripheralReset
00206431   SysCtlPeripheralEnable
00206457   SysCtlPeripheralDisable
0020647d   SysCtlPeripheralIsEnabled
0020649b   SysCtlPeripheralSleepEnable
002064c1   SysCtlPeripheralSleepDisable
002064e7   SysCtlPeripheralDeepSleepEnable
00206511   SysCtlPeripheralDeepSleepDisable
0020653d   SysCtlPeripheralClockGating
00206565   SysCtlReset
00206579   SysCtlDeepSleep
00206599   SysCtlResetCauseGet
002065a5   SysCtlResetCauseClear
002065c1   SysCtlXPllClockDividerSet
00206639   SysCtlClockDividersSet
0020673f   SysCtlPowerOffPLL
00206771   SysCtlClockPllConfig
0020689d   SysCtlClockConfigSet
002068d1   SysCtlClockConfigGet
00206921   SysCtlClockGet
0020699b   SysCtlC28Enable
002069b3   SysCtlC28Disable
002069cb   SysCtlGPIOAHBEnable
002069e7   SysCtlGPIOAHBDisable
00206a05   SysCtlUSBPLLEnable
00206a39   SysCtlUSBPLLDisable
00206a55   SysCtlUSBPLLConfigSet
00206aed   SysCtlUSBPLLConfigGet
00206b0b   SysCtlEnableAERRNMI
00206b25   SysCtlEnableVREGWarnNMI
00206b3d   SysCtlGetNmiConfig
00206b43   SysCtlGetNmiInterruptStatus
00206b51   SysCtlGetNmiFlagStatus
00206b59   SysCtlNmiIsSet
00206b71   SysCtlNmiFlgClr
00206b89   SysCtlNmiFlgClrAll
00206ba7   SysCtlHoldSubSystemInReset
00206bcd   SysCtlReleaseSubSystemFromReset
00206bf5   SysCtlSubSystemReset
00206c4d   uvsnprintf
00207043   usprintf
00207075   usnprintf
002070a9   ulocaltime
002071cf   ustrtoul
00207307   ustrstr
00207341   ustrnicmp
002073e1   ustrcasecmp
002073f5   usrand
00207405   urand
002078ad   dhcpc_init
002078fb   dhcpc_appcall
00207903   dhcpc_request
0020795d   uip_arp_init
00207995   uip_arp_timer
00207b2d   uip_arp_arpin
00207c51   uip_arp_out
00207eff   GPIODirModeSet
00207f2f   GPIODirModeGet
00207f59   GPIOIntTypeSet
00207f9f   GPIOIntTypeGet
00207fd9   GPIOPadConfigSet
00208033   GPIOPadConfigGet
0020806f   GPIOPinIntEnable
0020807b   GPIOPinIntDisable
00208089   GPIOPinIntStatus
00208097   GPIOPinIntClear
0020809d   GPIOPortIntRegister
002080b5   GPIOPortIntUnregister
002080c9   GPIOPinRead
002080cf   GPIOPinWrite
002080d5   GPIOPinTypeCAN
002080e9   GPIOPinTypeGPIOInput
002080fd   GPIOPinTypeGPIOOutput
00208119   GPIOPinTypeGPIOOutputOD
0020812d   GPIOPinTypeI2C
00208145   GPIOPinTypeSSI
0020815d   GPIOPinTypeTimer
00208171   GPIOPinTypeUART
00208185   GPIOPinTypeUSBDigital
00208199   GPIOPinTypeUSBAnalog
002081ad   GPIOPinTypeEPI
002081c1   GPIOPinConfigure
0020822b   GPIOPinConfigureCoreSelect
0020824b   GPIOPinLockStatus
00208255   GPIOPinLock
0020827b   GPIOPinUnlock
002082ad   EthernetInitExpClk
002082bb   EthernetConfigSet
002082e5   EthernetConfigGet
00208301   EthernetMACAddrSet
0020832f   EthernetMACAddrGet
00208359   EthernetEnable
0020837b   EthernetDisable
0020839d   EthernetPacketAvail
002083ad   EthernetSpaceAvail
00208451   EthernetPacketGetNonBlocking
00208461   EthernetPacketGet
002084fb   EthernetPacketPutNonBlocking
0020850b   EthernetPacketPut
00208519   EthernetIntRegister
00208529   EthernetIntUnregister
00208539   EthernetIntEnable
00208541   EthernetIntDisable
0020854b   EthernetIntStatus
00208557   EthernetIntClear
0020855b   EthernetPHYWrite
00208579   EthernetPHYRead
00208597   EthernetPHYPowerOff
002085b3   EthernetPHYPowerOn
002085cf   __tdeh_init
002085d1   uDMAEnable
002085d9   uDMADisable
002085e1   uDMAErrorStatusGet
002085e9   uDMAErrorStatusClear
002085f3   uDMAChannelEnable
00208601   uDMAChannelDisable
0020860f   uDMAChannelIsEnabled
0020861f   uDMAControlBaseSet
00208627   uDMAControlBaseGet
0020862f   uDMAControlAlternateBaseGet
00208637   uDMAChannelRequest
00208645   uDMAChannelAttributeEnable
00208681   uDMAChannelAttributeDisable
002086bd   uDMAChannelAttributeGet
0020870d   uDMAChannelControlSet
00208727   uDMAChannelTransferSet
0020879f   uDMAChannelScatterGatherSet
002087db   uDMAChannelSizeGet
002087f7   uDMAChannelModeGet
0020881b   uDMAChannel0_7SelectDefault
00208827   uDMAChannel0_7SelectAltMapping
00208835   uDMAChannel8_15SelectDefault
00208843   uDMAChannel8_15SelectAltMapping
0020884f   uDMAChannel16_23SelectDefault
0020885d   uDMAChannel16_23SelectAltMapping
00208869   uDMAChannel24_31SelectDefault
00208877   uDMAChannel24_31SelectAltMapping
00208883   uDMAIntRegister
00208893   uDMAIntUnregister
002088bb   IntMasterEnableMWare
002088c5   IntMasterDisableMWare
002088cf   IntFlashVTableMWare
002088dd   IntRAMVTableMWare
002088eb   IntRegisterMWare
00208915   IntUnregisterMWare
0020891f   IntPriorityGroupingSetMWare
00208931   IntPriorityGroupingGetMWare
00208953   IntPrioritySetMWare
0020897f   IntPriorityGetMWare
00208997   IntEnableMWare
00208a0b   IntDisableMWare
00208a81   IntPendSetMWare
00208af5   IntPendClearMWare
00208b6d   httpd_init
00208b79   httpd_parse_command_word
00208c0d   httpd_get_command
00208c3d   httpd_clear_command
00208c45   httpd_insert_response
00208c65   httpd_appcall
00208e19   WatchdogRunning
00208e21   WatchdogEnable
00208e2b   WatchdogResetEnable
00208e35   WatchdogResetDisable
00208e3f   WatchdogLock
00208e47   WatchdogUnlock
00208e4f   WatchdogLockState
00208e5f   WatchdogReloadSet
00208e63   WatchdogReloadGet
00208e67   WatchdogValueGet
00208e6b   WatchdogIntRegister
00208e7b   WatchdogIntUnregister
00208e8b   WatchdogIntEnable
00208e95   WatchdogIntStatus
00208e9f   WatchdogIntClear
00208ea5   WatchdogStallEnable
00208eb3   WatchdogStallDisable
00208ec5   __aeabi_memcpy
00208ec5   __aeabi_memcpy4
00208ec5   __aeabi_memcpy8
00208ec5   memcpy
00208f61   __TI_auto_init
00208ff5   SysTickEnable
00209001   SysTickDisable
0020900d   SysTickIntRegister
00209023   SysTickIntUnregister
00209033   SysTickIntEnable
0020903f   SysTickIntDisable
0020904b   SysTickPeriodSet
00209055   SysTickPeriodGet
0020905f   SysTickValueGet
0020906d   __aeabi_memclr
0020906d   __aeabi_memclr4
0020906d   __aeabi_memclr8
0020906f   __aeabi_memset
0020906f   __aeabi_memset4
0020906f   __aeabi_memset8
00209075   memset
00209143   timer_set
00209159   timer_reset
0020916f   timer_restart
0020917d   timer_expired
0020919d   copy_in
002091e5   C$$EXIT
002091e9   abort
002091f1   exit
00209229   CPUcpsid
00209235   CPUprimask
0020923f   CPUcpsie
0020924b   CPUwfi
0020924b   SysCtlSleep
0020924f   CPUbasepriSet
0020924f   IntPriorityMaskSetMWare
00209255   CPUbasepriGet
00209255   IntPriorityMaskGetMWare
00209261   _c_int00
00209295   strncpy
002092c5   strncmp
002092eb   memcmp
0020930d   _args_main
0020932d   _register_unlock
00209333   _register_lock
00209339   _nop
00209345   strlen
00209359   __TI_zero_init
0020936b   __TI_decompress_none
00209379   SysCtlDelay
0020937f   __TI_decompress_rle24
00209c4c   led6_on
00209c55   led6_off
00209c5e   led7_on
00209c67   led7_off
00209ce0   __TI_static_base__
00209cf8   __TI_Handler_Table_Base
00209d04   __TI_Handler_Table_Limit
00209d18   __TI_CINIT_Base
00209d30   __TI_CINIT_Limit
20000000   RamfuncsLoadStart
20000000   RamfuncsRunStart
20000000   __stack
20003800   __STACK_END
20003800   g_pfnRAMVectors
20004900   _lock
20004904   _unlock
20004908   _cleanup_ptr
2000490c   _dtors_ptr
20004910   g_ulTickCounter
2000491c   empty_char
20004920   uip_ethaddr
20004928   main_func_sp
20004c00   ucUIPBuffer
20005244   uip_udp_conns
200053a4   uip_conns
200053e4   hs
200053e8   index
200053f4   response_to_client
20005400   g_sDMAControlTable
20005480   uip_hostaddr
20005484   uip_draddr
20005488   uip_netmask
2000548c   uip_appdata
20005490   uip_sappdata
20005494   uip_len
20005496   uip_slen
20005498   uip_flags
2000549c   uip_conn
200054a0   uip_listenports
200054a8   uip_udp_conn
200054b4   uip_acc32
200054f0   uip_stat
20005524   uip_buf
ffffffff   __binit__
ffffffff   __c_args__
ffffffff   binit

[303 symbols]
